target datalayout = "e-m:e-p270:32:32-p271:32:32-p272:64:64-i64:64-i128:128-f80:128-n8:16:32:64-S128"
target triple = "x86_64-pc-linux-gnu"

%struct.EVP_ARIA_GCM_CTX = type { %union.anon, i32, i32, %struct.gcm128_context, ptr, i32, i32, i32, i32 }
%union.anon = type { double, [272 x i8] }
%struct.gcm128_context = type { %union.anon.0, %union.anon.0, %union.anon.0, %union.anon.0, %union.anon.0, %union.anon.0, [16 x %struct.u128], %struct.gcm_funcs_st, i32, i32, ptr, ptr, [48 x i8] }
%union.anon.0 = type { [2 x i64] }
%struct.u128 = type { i64, i64 }
%struct.gcm_funcs_st = type { ptr, ptr, ptr }

@.str = private unnamed_addr constant [31 x i8] c"../openssl/crypto/evp/e_aria.c\00", align 1
@__func__.aria_gcm_init_key = private unnamed_addr constant [18 x i8] c"aria_gcm_init_key\00", align 1

; Function Attrs: nounwind uwtable
define internal i32 @aria_gcm_init_key(ptr noundef %0, ptr noundef %1, ptr noundef %2, i32 noundef %3) #0 {
  %5 = alloca i32, align 4
  %6 = alloca ptr, align 8
  %7 = alloca ptr, align 8
  %8 = alloca ptr, align 8
  %9 = alloca i32, align 4
  %10 = alloca i32, align 4
  %11 = alloca ptr, align 8
  %12 = alloca i32, align 4
  store ptr %0, ptr %6, align 8, !tbaa !3
  store ptr %1, ptr %7, align 8, !tbaa !8
  store ptr %2, ptr %8, align 8, !tbaa !8
  store i32 %3, ptr %9, align 4, !tbaa !10
  call void @llvm.lifetime.start.p0(i64 4, ptr %10) #4
  call void @llvm.lifetime.start.p0(i64 8, ptr %11) #4
  %13 = load ptr, ptr %6, align 8, !tbaa !3
  %14 = call ptr @EVP_CIPHER_CTX_get_cipher_data(ptr noundef %13)
  store ptr %14, ptr %11, align 8, !tbaa !41
  %15 = load ptr, ptr %8, align 8, !tbaa !8
  %16 = icmp ne ptr %15, null
  br i1 %16, label %21, label %17

17:                                               ; preds = %4
  %18 = load ptr, ptr %7, align 8, !tbaa !8
  %19 = icmp ne ptr %18, null
  br i1 %19, label %21, label %20

20:                                               ; preds = %17
  store i32 1, ptr %5, align 4
  store i32 1, ptr %12, align 4
  br label %95

21:                                               ; preds = %17, %4
  %22 = load ptr, ptr %7, align 8, !tbaa !8
  %23 = icmp ne ptr %22, null
  br i1 %23, label %24, label %67

24:                                               ; preds = %21
  %25 = load ptr, ptr %7, align 8, !tbaa !8
  %26 = load ptr, ptr %6, align 8, !tbaa !3
  %27 = call i32 @EVP_CIPHER_CTX_get_key_length(ptr noundef %26)
  %28 = mul nsw i32 %27, 8
  %29 = load ptr, ptr %11, align 8, !tbaa !41
  %30 = getelementptr inbounds nuw %struct.EVP_ARIA_GCM_CTX, ptr %29, i32 0, i32 0
  %31 = call i32 @ossl_aria_set_encrypt_key(ptr noundef %25, i32 noundef %28, ptr noundef %30)
  store i32 %31, ptr %10, align 4, !tbaa !10
  %32 = load ptr, ptr %11, align 8, !tbaa !41
  %33 = getelementptr inbounds nuw %struct.EVP_ARIA_GCM_CTX, ptr %32, i32 0, i32 3
  %34 = load ptr, ptr %11, align 8, !tbaa !41
  %35 = getelementptr inbounds nuw %struct.EVP_ARIA_GCM_CTX, ptr %34, i32 0, i32 0
  call void @CRYPTO_gcm128_init(ptr noundef %33, ptr noundef %35, ptr noundef @ossl_aria_encrypt)
  %36 = load i32, ptr %10, align 4, !tbaa !10
  %37 = icmp slt i32 %36, 0
  br i1 %37, label %38, label %39

38:                                               ; preds = %24
  call void @ERR_new()
  call void @ERR_set_debug(ptr noundef @.str, i32 noundef 230, ptr noundef @__func__.aria_gcm_init_key)
  call void (i32, i32, ptr, ...) @ERR_set_error(i32 noundef 6, i32 noundef 176, ptr noundef null)
  store i32 0, ptr %5, align 4
  store i32 1, ptr %12, align 4
  br label %95

39:                                               ; preds = %24
  %40 = load ptr, ptr %8, align 8, !tbaa !8
  %41 = icmp eq ptr %40, null
  br i1 %41, label %42, label %51

42:                                               ; preds = %39
  %43 = load ptr, ptr %11, align 8, !tbaa !41
  %44 = getelementptr inbounds nuw %struct.EVP_ARIA_GCM_CTX, ptr %43, i32 0, i32 2
  %45 = load i32, ptr %44, align 4, !tbaa !42
  %46 = icmp ne i32 %45, 0
  br i1 %46, label %47, label %51

47:                                               ; preds = %42
  %48 = load ptr, ptr %11, align 8, !tbaa !41
  %49 = getelementptr inbounds nuw %struct.EVP_ARIA_GCM_CTX, ptr %48, i32 0, i32 4
  %50 = load ptr, ptr %49, align 8, !tbaa !46
  store ptr %50, ptr %8, align 8, !tbaa !8
  br label %51

51:                                               ; preds = %47, %42, %39
  %52 = load ptr, ptr %8, align 8, !tbaa !8
  %53 = icmp ne ptr %52, null
  br i1 %53, label %54, label %64

54:                                               ; preds = %51
  %55 = load ptr, ptr %11, align 8, !tbaa !41
  %56 = getelementptr inbounds nuw %struct.EVP_ARIA_GCM_CTX, ptr %55, i32 0, i32 3
  %57 = load ptr, ptr %8, align 8, !tbaa !8
  %58 = load ptr, ptr %11, align 8, !tbaa !41
  %59 = getelementptr inbounds nuw %struct.EVP_ARIA_GCM_CTX, ptr %58, i32 0, i32 5
  %60 = load i32, ptr %59, align 8, !tbaa !47
  %61 = sext i32 %60 to i64
  call void @CRYPTO_gcm128_setiv(ptr noundef %56, ptr noundef %57, i64 noundef %61)
  %62 = load ptr, ptr %11, align 8, !tbaa !41
  %63 = getelementptr inbounds nuw %struct.EVP_ARIA_GCM_CTX, ptr %62, i32 0, i32 2
  store i32 1, ptr %63, align 4, !tbaa !42
  br label %64

64:                                               ; preds = %54, %51
  %65 = load ptr, ptr %11, align 8, !tbaa !41
  %66 = getelementptr inbounds nuw %struct.EVP_ARIA_GCM_CTX, ptr %65, i32 0, i32 1
  store i32 1, ptr %66, align 8, !tbaa !48
  br label %94

67:                                               ; preds = %21
  %68 = load ptr, ptr %11, align 8, !tbaa !41
  %69 = getelementptr inbounds nuw %struct.EVP_ARIA_GCM_CTX, ptr %68, i32 0, i32 1
  %70 = load i32, ptr %69, align 8, !tbaa !48
  %71 = icmp ne i32 %70, 0
  br i1 %71, label %72, label %80

72:                                               ; preds = %67
  %73 = load ptr, ptr %11, align 8, !tbaa !41
  %74 = getelementptr inbounds nuw %struct.EVP_ARIA_GCM_CTX, ptr %73, i32 0, i32 3
  %75 = load ptr, ptr %8, align 8, !tbaa !8
  %76 = load ptr, ptr %11, align 8, !tbaa !41
  %77 = getelementptr inbounds nuw %struct.EVP_ARIA_GCM_CTX, ptr %76, i32 0, i32 5
  %78 = load i32, ptr %77, align 8, !tbaa !47
  %79 = sext i32 %78 to i64
  call void @CRYPTO_gcm128_setiv(ptr noundef %74, ptr noundef %75, i64 noundef %79)
  br label %89

80:                                               ; preds = %67
  %81 = load ptr, ptr %11, align 8, !tbaa !41
  %82 = getelementptr inbounds nuw %struct.EVP_ARIA_GCM_CTX, ptr %81, i32 0, i32 4
  %83 = load ptr, ptr %82, align 8, !tbaa !46
  %84 = load ptr, ptr %8, align 8, !tbaa !8
  %85 = load ptr, ptr %11, align 8, !tbaa !41
  %86 = getelementptr inbounds nuw %struct.EVP_ARIA_GCM_CTX, ptr %85, i32 0, i32 5
  %87 = load i32, ptr %86, align 8, !tbaa !47
  %88 = sext i32 %87 to i64
  call void @llvm.memcpy.p0.p0.i64(ptr align 1 %83, ptr align 1 %84, i64 %88, i1 false)
  br label %89

89:                                               ; preds = %80, %72
  %90 = load ptr, ptr %11, align 8, !tbaa !41
  %91 = getelementptr inbounds nuw %struct.EVP_ARIA_GCM_CTX, ptr %90, i32 0, i32 2
  store i32 1, ptr %91, align 4, !tbaa !42
  %92 = load ptr, ptr %11, align 8, !tbaa !41
  %93 = getelementptr inbounds nuw %struct.EVP_ARIA_GCM_CTX, ptr %92, i32 0, i32 7
  store i32 0, ptr %93, align 8, !tbaa !49
  br label %94

94:                                               ; preds = %89, %64
  store i32 1, ptr %5, align 4
  store i32 1, ptr %12, align 4
  br label %95

95:                                               ; preds = %94, %38, %20
  call void @llvm.lifetime.end.p0(i64 8, ptr %11) #4
  call void @llvm.lifetime.end.p0(i64 4, ptr %10) #4
  %96 = load i32, ptr %5, align 4
  ret i32 %96
}