; Function Attrs: nounwind uwtable
define internal range(i32 0, 2) i32 @aria_gcm_init_key(ptr noundef %0, ptr noundef %1, ptr noundef %2, i32 %3) #1 {
  %5 = tail call ptr @EVP_CIPHER_CTX_get_cipher_data(ptr noundef %0) #6
  %6 = icmp ne ptr %2, null
  %7 = icmp ne ptr %1, null
  %or.cond = or i1 %7, %6
  br i1 %or.cond, label %8, label %46

8:                                                ; preds = %4
  br i1 %7, label %9, label %29

9:                                                ; preds = %8
  %10 = tail call i32 @EVP_CIPHER_CTX_get_key_length(ptr noundef %0) #6
  %11 = shl nsw i32 %10, 3
  %12 = tail call i32 @ossl_aria_set_encrypt_key(ptr noundef nonnull %1, i32 noundef %11, ptr noundef %5) #6
  %13 = getelementptr inbounds nuw i8, ptr %5, i64 288
  tail call void @CRYPTO_gcm128_init(ptr noundef nonnull %13, ptr noundef %5, ptr noundef nonnull @ossl_aria_encrypt) #6
  %14 = icmp slt i32 %12, 0
  br i1 %14, label %15, label %16

15:                                               ; preds = %9
  tail call void @ERR_new() #6
  tail call void @ERR_set_debug(ptr noundef nonnull @.str, i32 noundef 230, ptr noundef nonnull @__func__.aria_gcm_init_key) #6
  tail call void (i32, i32, ptr, ...) @ERR_set_error(i32 noundef 6, i32 noundef 176, ptr noundef null) #6
  br label %46

16:                                               ; preds = %9
  %17 = icmp eq ptr %2, null
  br i1 %17, label %18, label %.thread36

18:                                               ; preds = %16
  %19 = getelementptr inbounds nuw i8, ptr %5, i64 284
  %20 = load i32, ptr %19, align 4, !tbaa !33
  %.not32 = icmp eq i32 %20, 0
  br i1 %.not32, label %.thread, label %21

21:                                               ; preds = %18
  %22 = getelementptr inbounds nuw i8, ptr %5, i64 736
  %23 = load ptr, ptr %22, align 8, !tbaa !37
  %.not33 = icmp eq ptr %23, null
  br i1 %.not33, label %.thread, label %.thread36

.thread36:                                        ; preds = %16, %21
  %.02939 = phi ptr [ %23, %21 ], [ %2, %16 ]
  %24 = getelementptr inbounds nuw i8, ptr %5, i64 744
  %25 = load i32, ptr %24, align 8, !tbaa !38
  %26 = sext i32 %25 to i64
  tail call void @CRYPTO_gcm128_setiv(ptr noundef nonnull %13, ptr noundef nonnull %.02939, i64 noundef %26) #6
  %27 = getelementptr inbounds nuw i8, ptr %5, i64 284
  store i32 1, ptr %27, align 4, !tbaa !33
  br label %.thread

.thread:                                          ; preds = %18, %.thread36, %21
  %28 = getelementptr inbounds nuw i8, ptr %5, i64 280
  store i32 1, ptr %28, align 8, !tbaa !39
  br label %46

29:                                               ; preds = %8
  %30 = getelementptr inbounds nuw i8, ptr %5, i64 280
  %31 = load i32, ptr %30, align 8, !tbaa !39
  %.not = icmp eq i32 %31, 0
  br i1 %.not, label %37, label %32

32:                                               ; preds = %29
  %33 = getelementptr inbounds nuw i8, ptr %5, i64 288
  %34 = getelementptr inbounds nuw i8, ptr %5, i64 744
  %35 = load i32, ptr %34, align 8, !tbaa !38
  %36 = sext i32 %35 to i64
  tail call void @CRYPTO_gcm128_setiv(ptr noundef nonnull %33, ptr noundef %2, i64 noundef %36) #6
  br label %43

37:                                               ; preds = %29
  %38 = getelementptr inbounds nuw i8, ptr %5, i64 736
  %39 = load ptr, ptr %38, align 8, !tbaa !37
  %40 = getelementptr inbounds nuw i8, ptr %5, i64 744
  %41 = load i32, ptr %40, align 8, !tbaa !38
  %42 = sext i32 %41 to i64
  tail call void @llvm.memcpy.p0.p0.i64(ptr align 1 %39, ptr align 1 %2, i64 %42, i1 false)
  br label %43

43:                                               ; preds = %37, %32
  %44 = getelementptr inbounds nuw i8, ptr %5, i64 284
  store i32 1, ptr %44, align 4, !tbaa !33
  %45 = getelementptr inbounds nuw i8, ptr %5, i64 752
  store i32 0, ptr %45, align 8, !tbaa !40
  br label %46

46:                                               ; preds = %.thread, %43, %4, %15
  %.0 = phi i32 [ 0, %15 ], [ 1, %4 ], [ 1, %43 ], [ 1, %.thread ]
  ret i32 %.0
}